target datalayout = "e-m:e-p270:32:32-p271:32:32-p272:64:64-i64:64-i128:128-f80:128-n8:16:32:64-S128"
target triple = "x86_64-pc-linux-gnu"

@.str = private unnamed_addr constant [66 x i8] c"../openssl/providers/implementations/ciphers/cipher_tdes_common.c\00", align 1
@.str.2 = private unnamed_addr constant [13 x i8] c"decrypt-only\00", align 1
@__func__.ossl_tdes_get_params = private unnamed_addr constant [21 x i8] c"ossl_tdes_get_params\00", align 1

; Function Attrs: nounwind uwtable
define i32 @ossl_tdes_get_params(ptr noundef %0, i32 noundef %1, i64 noundef %2, i64 noundef %3, i64 noundef %4, i64 noundef %5) #0 {
  %7 = alloca i32, align 4
  %8 = alloca ptr, align 8
  %9 = alloca i32, align 4
  %10 = alloca i64, align 8
  %11 = alloca i64, align 8
  %12 = alloca i64, align 8
  %13 = alloca i64, align 8
  %14 = alloca i32, align 4
  %15 = alloca ptr, align 8
  %16 = alloca i32, align 4
  store ptr %0, ptr %8, align 8, !tbaa !23
  store i32 %1, ptr %9, align 4, !tbaa !7
  store i64 %2, ptr %10, align 8, !tbaa !9
  store i64 %3, ptr %11, align 8, !tbaa !9
  store i64 %4, ptr %12, align 8, !tbaa !9
  store i64 %5, ptr %13, align 8, !tbaa !9
  call void @llvm.lifetime.start.p0(i64 4, ptr %14) #4
  store i32 0, ptr %14, align 4, !tbaa !7
  call void @llvm.lifetime.start.p0(i64 8, ptr %15) #4
  %17 = load ptr, ptr %8, align 8, !tbaa !23
  %18 = call ptr @OSSL_PARAM_locate(ptr noundef %17, ptr noundef @.str.2)
  store ptr %18, ptr %15, align 8, !tbaa !23
  %19 = load ptr, ptr %15, align 8, !tbaa !23
  %20 = icmp ne ptr %19, null
  br i1 %20, label %21, label %26

21:                                               ; preds = %6
  %22 = load ptr, ptr %15, align 8, !tbaa !23
  %23 = call i32 @OSSL_PARAM_set_int(ptr noundef %22, i32 noundef 0)
  %24 = icmp ne i32 %23, 0
  br i1 %24, label %26, label %25

25:                                               ; preds = %21
  call void @ERR_new()
  call void @ERR_set_debug(ptr noundef @.str, i32 noundef 200, ptr noundef @__func__.ossl_tdes_get_params)
  call void (i32, i32, ptr, ...) @ERR_set_error(i32 noundef 57, i32 noundef 104, ptr noundef null)
  store i32 0, ptr %7, align 4
  store i32 1, ptr %16, align 4
  br label %34

26:                                               ; preds = %21, %6
  %27 = load ptr, ptr %8, align 8, !tbaa !23
  %28 = load i32, ptr %9, align 4, !tbaa !7
  %29 = load i64, ptr %10, align 8, !tbaa !9
  %30 = load i64, ptr %11, align 8, !tbaa !9
  %31 = load i64, ptr %12, align 8, !tbaa !9
  %32 = load i64, ptr %13, align 8, !tbaa !9
  %33 = call i32 @ossl_cipher_generic_get_params(ptr noundef %27, i32 noundef %28, i64 noundef %29, i64 noundef %30, i64 noundef %31, i64 noundef %32)
  store i32 %33, ptr %7, align 4
  store i32 1, ptr %16, align 4
  br label %34

34:                                               ; preds = %26, %25
  call void @llvm.lifetime.end.p0(i64 8, ptr %15) #4
  call void @llvm.lifetime.end.p0(i64 4, ptr %14) #4
  %35 = load i32, ptr %7, align 4
  ret i32 %35
}