; Function Attrs: nounwind uwtable
define i32 @ossl_tdes_get_params(ptr noundef %0, i32 noundef %1, i64 noundef %2, i64 noundef %3, i64 noundef %4, i64 noundef %5) local_unnamed_addr #0 {
  %7 = tail call ptr @OSSL_PARAM_locate(ptr noundef %0, ptr noundef nonnull @.str.2) #4
  %.not = icmp eq ptr %7, null
  br i1 %.not, label %11, label %8

8:                                                ; preds = %6
  %9 = tail call i32 @OSSL_PARAM_set_int(ptr noundef nonnull %7, i32 noundef 0) #4
  %.not10 = icmp eq i32 %9, 0
  br i1 %.not10, label %10, label %11

10:                                               ; preds = %8
  tail call void @ERR_new() #4
  tail call void @ERR_set_debug(ptr noundef nonnull @.str, i32 noundef 200, ptr noundef nonnull @__func__.ossl_tdes_get_params) #4
  tail call void (i32, i32, ptr, ...) @ERR_set_error(i32 noundef 57, i32 noundef 104, ptr noundef null) #4
  br label %13

11:                                               ; preds = %8, %6
  %12 = tail call i32 @ossl_cipher_generic_get_params(ptr noundef %0, i32 noundef %1, i64 noundef %2, i64 noundef %3, i64 noundef %4, i64 noundef %5) #4
  br label %13

13:                                               ; preds = %11, %10
  %.0 = phi i32 [ %12, %11 ], [ 0, %10 ]
  ret i32 %.0
}